; Function Attrs: mustprogress uwtable
define noundef i32 @zmq_socket_monitor(ptr noundef %0, ptr noundef %1, i32 noundef %2) local_unnamed_addr #1 {
  %4 = sext i32 %2 to i64
  %.not.i.i = icmp eq ptr %0, null
  br i1 %.not.i.i, label %_ZL16as_socket_base_tPv.exit.thread.i, label %5

5:                                                ; preds = %3
  %6 = tail call noundef zeroext i1 @_ZNK3zmq13socket_base_t9check_tagEv(ptr noundef nonnull align 8 dereferenceable(1825) %0)
  br i1 %6, label %_ZL16as_socket_base_tPv.exit.i, label %_ZL16as_socket_base_tPv.exit.thread.i

_ZL16as_socket_base_tPv.exit.thread.i:            ; preds = %5, %3
  %7 = tail call ptr @__errno_location() #20
  store i32 88, ptr %7, align 4, !tbaa !3
  br label %zmq_socket_monitor_versioned.exit

_ZL16as_socket_base_tPv.exit.i:                   ; preds = %5
  %8 = tail call noundef i32 @_ZN3zmq13socket_base_t7monitorEPKcmii(ptr noundef nonnull align 8 dereferenceable(1825) %0, ptr noundef %1, i64 noundef %4, i32 noundef 1, i32 noundef 0)
  br label %zmq_socket_monitor_versioned.exit

zmq_socket_monitor_versioned.exit:                ; preds = %_ZL16as_socket_base_tPv.exit.thread.i, %_ZL16as_socket_base_tPv.exit.i
  %.0.i = phi i32 [ %8, %_ZL16as_socket_base_tPv.exit.i ], [ -1, %_ZL16as_socket_base_tPv.exit.thread.i ]
  ret i32 %.0.i
}